; Function Attrs: nounwind uwtable
define dso_local void @CacheInvalidateCatalog(i32 noundef %0) local_unnamed_addr #0 {
  %.sroa.4.i.i = alloca [3 x i8], align 1
  %2 = tail call zeroext i1 @IsSharedRelation(i32 noundef %0) #7
  %3 = load i32, ptr @MyDatabaseId, align 4
  %4 = tail call ptr @PrepareInvalidationState()
  call void @llvm.lifetime.start.p0(i64 3, ptr nonnull %.sroa.4.i.i)
  %5 = getelementptr inbounds nuw i8, ptr %4, i64 8
  %6 = load i32, ptr %5, align 4
  %7 = load i32, ptr @InvalMessageArrays.1, align 8
  %.not.i.i.i = icmp slt i32 %6, %7
  %.pre.i.i.i = load ptr, ptr @InvalMessageArrays.0, align 16
  br i1 %.not.i.i.i, label %RegisterCatalogInvalidation.exit, label %8

8:                                                ; preds = %1
  %9 = icmp eq ptr %.pre.i.i.i, null
  br i1 %9, label %10, label %13

10:                                               ; preds = %8
  %11 = load ptr, ptr @TopTransactionContext, align 8
  %12 = tail call ptr @MemoryContextAlloc(ptr noundef %11, i64 noundef 512) #7
  br label %.sink.split.i.i.i

13:                                               ; preds = %8
  %14 = shl i32 %7, 1
  %15 = sext i32 %14 to i64
  %16 = shl nsw i64 %15, 4
  %17 = tail call ptr @repalloc(ptr noundef nonnull %.pre.i.i.i, i64 noundef %16) #7
  br label %.sink.split.i.i.i

.sink.split.i.i.i:                                ; preds = %13, %10
  %.sink21.i.i.i = phi ptr [ %12, %10 ], [ %17, %13 ]
  %.sink.i.i.i = phi i32 [ 32, %10 ], [ %14, %13 ]
  store ptr %.sink21.i.i.i, ptr @InvalMessageArrays.0, align 16
  store i32 %.sink.i.i.i, ptr @InvalMessageArrays.1, align 8
  br label %RegisterCatalogInvalidation.exit

RegisterCatalogInvalidation.exit:                 ; preds = %1, %.sink.split.i.i.i
  %18 = phi ptr [ %.pre.i.i.i, %1 ], [ %.sink21.i.i.i, %.sink.split.i.i.i ]
  %.0 = select i1 %2, i32 0, i32 %3
  %19 = sext i32 %6 to i64
  %20 = getelementptr inbounds %union.SharedInvalidationMessage, ptr %18, i64 %19
  store i8 -1, ptr %20, align 4
  %.sroa.4.0..sroa_idx.i.i = getelementptr inbounds nuw i8, ptr %20, i64 1
  call void @llvm.memcpy.p0.p0.i64(ptr noundef nonnull align 1 dereferenceable(3) %.sroa.4.0..sroa_idx.i.i, ptr noundef nonnull align 1 dereferenceable(3) %.sroa.4.i.i, i64 3, i1 false)
  %.sroa.42.0..sroa_idx.i.i = getelementptr inbounds nuw i8, ptr %20, i64 4
  store i32 %.0, ptr %.sroa.42.0..sroa_idx.i.i, align 4
  %.sroa.5.0..sroa_idx.i.i = getelementptr inbounds nuw i8, ptr %20, i64 8
  store i32 %0, ptr %.sroa.5.0..sroa_idx.i.i, align 4
  %21 = load i32, ptr %5, align 4
  %22 = add i32 %21, 1
  store i32 %22, ptr %5, align 4
  call void @llvm.lifetime.end.p0(i64 3, ptr nonnull %.sroa.4.i.i)
  ret void
}